target datalayout = "e-m:e-p270:32:32-p271:32:32-p272:64:64-i64:64-i128:128-f80:128-n8:16:32:64-S128"
target triple = "x86_64-pc-linux-gnu"

; Function Attrs: mustprogress uwtable
define noundef i32 @_ZN10duckdb_lz440LZ4_decompress_safe_partial_forceExtDictEPKcPciiiPKvm(ptr noundef %0, ptr noundef %1, i32 noundef %2, i32 noundef %3, i32 noundef %4, ptr noundef %5, i64 noundef %6) #1 {
  %8 = alloca ptr, align 8
  %9 = alloca ptr, align 8
  %10 = alloca i32, align 4
  %11 = alloca i32, align 4
  %12 = alloca i32, align 4
  %13 = alloca ptr, align 8
  %14 = alloca i64, align 8
  store ptr %0, ptr %8, align 8, !tbaa !9
  store ptr %1, ptr %9, align 8, !tbaa !9
  store i32 %2, ptr %10, align 4, !tbaa !3
  store i32 %3, ptr %11, align 4, !tbaa !3
  store i32 %4, ptr %12, align 4, !tbaa !3
  store ptr %5, ptr %13, align 8, !tbaa !7
  store i64 %6, ptr %14, align 8, !tbaa !15
  %15 = load i32, ptr %11, align 4, !tbaa !3
  %16 = load i32, ptr %12, align 4, !tbaa !3
  %17 = icmp slt i32 %15, %16
  br i1 %17, label %18, label %20

18:                                               ; preds = %7
  %19 = load i32, ptr %11, align 4, !tbaa !3
  br label %22

20:                                               ; preds = %7
  %21 = load i32, ptr %12, align 4, !tbaa !3
  br label %22

22:                                               ; preds = %20, %18
  %23 = phi i32 [ %19, %18 ], [ %21, %20 ]
  store i32 %23, ptr %12, align 4, !tbaa !3
  %24 = load ptr, ptr %8, align 8, !tbaa !9
  %25 = load ptr, ptr %9, align 8, !tbaa !9
  %26 = load i32, ptr %10, align 4, !tbaa !3
  %27 = load i32, ptr %12, align 4, !tbaa !3
  %28 = load ptr, ptr %9, align 8, !tbaa !9
  %29 = load ptr, ptr %13, align 8, !tbaa !7
  %30 = load i64, ptr %14, align 8, !tbaa !15
  %31 = call noundef i32 @_ZN10duckdb_lz4L22LZ4_decompress_genericEPKcPciiNS_18earlyEnd_directiveENS_14dict_directiveEPKhS6_m(ptr noundef %24, ptr noundef %25, i32 noundef %26, i32 noundef %27, i32 noundef 1, i32 noundef 2, ptr noundef %28, ptr noundef %29, i64 noundef %30)
  ret i32 %31
}

; Function Attrs: mustprogress uwtable
define internal noundef i32 @_ZN10duckdb_lz4L43LZ4_decompress_safe_partial_withSmallPrefixEPKcPciiim(ptr noundef %0, ptr noundef %1, i32 noundef %2, i32 noundef %3, i32 noundef %4, i64 noundef %5) #1 {
  %7 = alloca ptr, align 8
  %8 = alloca ptr, align 8
  %9 = alloca i32, align 4
  %10 = alloca i32, align 4
  %11 = alloca i32, align 4
  %12 = alloca i64, align 8
  store ptr %0, ptr %7, align 8, !tbaa !9
  store ptr %1, ptr %8, align 8, !tbaa !9
  store i32 %2, ptr %9, align 4, !tbaa !3
  store i32 %3, ptr %10, align 4, !tbaa !3
  store i32 %4, ptr %11, align 4, !tbaa !3
  store i64 %5, ptr %12, align 8, !tbaa !15
  %13 = load i32, ptr %10, align 4, !tbaa !3
  %14 = load i32, ptr %11, align 4, !tbaa !3
  %15 = icmp slt i32 %13, %14
  br i1 %15, label %16, label %18

16:                                               ; preds = %6
  %17 = load i32, ptr %10, align 4, !tbaa !3
  br label %20

18:                                               ; preds = %6
  %19 = load i32, ptr %11, align 4, !tbaa !3
  br label %20

20:                                               ; preds = %18, %16
  %21 = phi i32 [ %17, %16 ], [ %19, %18 ]
  store i32 %21, ptr %11, align 4, !tbaa !3
  %22 = load ptr, ptr %7, align 8, !tbaa !9
  %23 = load ptr, ptr %8, align 8, !tbaa !9
  %24 = load i32, ptr %9, align 4, !tbaa !3
  %25 = load i32, ptr %11, align 4, !tbaa !3
  %26 = load ptr, ptr %8, align 8, !tbaa !9
  %27 = load i64, ptr %12, align 8, !tbaa !15
  %28 = sub i64 0, %27
  %29 = getelementptr inbounds i8, ptr %26, i64 %28
  %30 = call noundef i32 @_ZN10duckdb_lz4L22LZ4_decompress_genericEPKcPciiNS_18earlyEnd_directiveENS_14dict_directiveEPKhS6_m(ptr noundef %22, ptr noundef %23, i32 noundef %24, i32 noundef %25, i32 noundef 1, i32 noundef 0, ptr noundef %29, ptr noundef null, i64 noundef 0)
  ret i32 %30
}

; Function Attrs: mustprogress uwtable
define internal noundef i32 @_ZN10duckdb_lz4L41LZ4_decompress_safe_partial_withPrefix64kEPKcPciii(ptr noundef %0, ptr noundef %1, i32 noundef %2, i32 noundef %3, i32 noundef %4) #1 {
  %6 = alloca ptr, align 8
  %7 = alloca ptr, align 8
  %8 = alloca i32, align 4
  %9 = alloca i32, align 4
  %10 = alloca i32, align 4
  store ptr %0, ptr %6, align 8, !tbaa !9
  store ptr %1, ptr %7, align 8, !tbaa !9
  store i32 %2, ptr %8, align 4, !tbaa !3
  store i32 %3, ptr %9, align 4, !tbaa !3
  store i32 %4, ptr %10, align 4, !tbaa !3
  %11 = load i32, ptr %9, align 4, !tbaa !3
  %12 = load i32, ptr %10, align 4, !tbaa !3
  %13 = icmp slt i32 %11, %12
  br i1 %13, label %14, label %16

14:                                               ; preds = %5
  %15 = load i32, ptr %9, align 4, !tbaa !3
  br label %18

16:                                               ; preds = %5
  %17 = load i32, ptr %10, align 4, !tbaa !3
  br label %18

18:                                               ; preds = %16, %14
  %19 = phi i32 [ %15, %14 ], [ %17, %16 ]
  store i32 %19, ptr %10, align 4, !tbaa !3
  %20 = load ptr, ptr %6, align 8, !tbaa !9
  %21 = load ptr, ptr %7, align 8, !tbaa !9
  %22 = load i32, ptr %8, align 4, !tbaa !3
  %23 = load i32, ptr %10, align 4, !tbaa !3
  %24 = load ptr, ptr %7, align 8, !tbaa !9
  %25 = getelementptr inbounds i8, ptr %24, i64 -65536
  %26 = call noundef i32 @_ZN10duckdb_lz4L22LZ4_decompress_genericEPKcPciiNS_18earlyEnd_directiveENS_14dict_directiveEPKhS6_m(ptr noundef %20, ptr noundef %21, i32 noundef %22, i32 noundef %23, i32 noundef 1, i32 noundef 1, ptr noundef %25, ptr noundef null, i64 noundef 0)
  ret i32 %26
}

; Function Attrs: mustprogress uwtable
define noundef i32 @_ZN10duckdb_lz427LZ4_decompress_safe_partialEPKcPciii(ptr noundef %0, ptr noundef %1, i32 noundef %2, i32 noundef %3, i32 noundef %4) #1 {
  %6 = alloca ptr, align 8
  %7 = alloca ptr, align 8
  %8 = alloca i32, align 4
  %9 = alloca i32, align 4
  %10 = alloca i32, align 4
  store ptr %0, ptr %6, align 8, !tbaa !9
  store ptr %1, ptr %7, align 8, !tbaa !9
  store i32 %2, ptr %8, align 4, !tbaa !3
  store i32 %3, ptr %9, align 4, !tbaa !3
  store i32 %4, ptr %10, align 4, !tbaa !3
  %11 = load i32, ptr %9, align 4, !tbaa !3
  %12 = load i32, ptr %10, align 4, !tbaa !3
  %13 = icmp slt i32 %11, %12
  br i1 %13, label %14, label %16

14:                                               ; preds = %5
  %15 = load i32, ptr %9, align 4, !tbaa !3
  br label %18

16:                                               ; preds = %5
  %17 = load i32, ptr %10, align 4, !tbaa !3
  br label %18

18:                                               ; preds = %16, %14
  %19 = phi i32 [ %15, %14 ], [ %17, %16 ]
  store i32 %19, ptr %10, align 4, !tbaa !3
  %20 = load ptr, ptr %6, align 8, !tbaa !9
  %21 = load ptr, ptr %7, align 8, !tbaa !9
  %22 = load i32, ptr %8, align 4, !tbaa !3
  %23 = load i32, ptr %10, align 4, !tbaa !3
  %24 = load ptr, ptr %7, align 8, !tbaa !9
  %25 = call noundef i32 @_ZN10duckdb_lz4L22LZ4_decompress_genericEPKcPciiNS_18earlyEnd_directiveENS_14dict_directiveEPKhS6_m(ptr noundef %20, ptr noundef %21, i32 noundef %22, i32 noundef %23, i32 noundef 1, i32 noundef 0, ptr noundef %24, ptr noundef null, i64 noundef 0)
  ret i32 %25
}

; Function Attrs: mustprogress uwtable
define noundef i32 @_ZN10duckdb_lz437LZ4_decompress_safe_partial_usingDictEPKcPciiiS1_i(ptr noundef %0, ptr noundef %1, i32 noundef %2, i32 noundef %3, i32 noundef %4, ptr noundef %5, i32 noundef %6) #1 {
  %8 = alloca i32, align 4
  %9 = alloca ptr, align 8
  %10 = alloca ptr, align 8
  %11 = alloca i32, align 4
  %12 = alloca i32, align 4
  %13 = alloca i32, align 4
  %14 = alloca ptr, align 8
  %15 = alloca i32, align 4
  store ptr %0, ptr %9, align 8, !tbaa !9
  store ptr %1, ptr %10, align 8, !tbaa !9
  store i32 %2, ptr %11, align 4, !tbaa !3
  store i32 %3, ptr %12, align 4, !tbaa !3
  store i32 %4, ptr %13, align 4, !tbaa !3
  store ptr %5, ptr %14, align 8, !tbaa !9
  store i32 %6, ptr %15, align 4, !tbaa !3
  %16 = load i32, ptr %15, align 4, !tbaa !3
  %17 = icmp eq i32 %16, 0
  br i1 %17, label %18, label %25

18:                                               ; preds = %7
  %19 = load ptr, ptr %9, align 8, !tbaa !9
  %20 = load ptr, ptr %10, align 8, !tbaa !9
  %21 = load i32, ptr %11, align 4, !tbaa !3
  %22 = load i32, ptr %12, align 4, !tbaa !3
  %23 = load i32, ptr %13, align 4, !tbaa !3
  %24 = call noundef i32 @_ZN10duckdb_lz427LZ4_decompress_safe_partialEPKcPciii(ptr noundef %19, ptr noundef %20, i32 noundef %21, i32 noundef %22, i32 noundef %23)
  store i32 %24, ptr %8, align 4
  br label %61

25:                                               ; preds = %7
  %26 = load ptr, ptr %14, align 8, !tbaa !9
  %27 = load i32, ptr %15, align 4, !tbaa !3
  %28 = sext i32 %27 to i64
  %29 = getelementptr inbounds i8, ptr %26, i64 %28
  %30 = load ptr, ptr %10, align 8, !tbaa !9
  %31 = icmp eq ptr %29, %30
  br i1 %31, label %32, label %51

32:                                               ; preds = %25
  %33 = load i32, ptr %15, align 4, !tbaa !3
  %34 = icmp sge i32 %33, 65535
  br i1 %34, label %35, label %42

35:                                               ; preds = %32
  %36 = load ptr, ptr %9, align 8, !tbaa !9
  %37 = load ptr, ptr %10, align 8, !tbaa !9
  %38 = load i32, ptr %11, align 4, !tbaa !3
  %39 = load i32, ptr %12, align 4, !tbaa !3
  %40 = load i32, ptr %13, align 4, !tbaa !3
  %41 = call noundef i32 @_ZN10duckdb_lz4L41LZ4_decompress_safe_partial_withPrefix64kEPKcPciii(ptr noundef %36, ptr noundef %37, i32 noundef %38, i32 noundef %39, i32 noundef %40)
  store i32 %41, ptr %8, align 4
  br label %61

42:                                               ; preds = %32
  %43 = load ptr, ptr %9, align 8, !tbaa !9
  %44 = load ptr, ptr %10, align 8, !tbaa !9
  %45 = load i32, ptr %11, align 4, !tbaa !3
  %46 = load i32, ptr %12, align 4, !tbaa !3
  %47 = load i32, ptr %13, align 4, !tbaa !3
  %48 = load i32, ptr %15, align 4, !tbaa !3
  %49 = sext i32 %48 to i64
  %50 = call noundef i32 @_ZN10duckdb_lz4L43LZ4_decompress_safe_partial_withSmallPrefixEPKcPciiim(ptr noundef %43, ptr noundef %44, i32 noundef %45, i32 noundef %46, i32 noundef %47, i64 noundef %49)
  store i32 %50, ptr %8, align 4
  br label %61

51:                                               ; preds = %25
  %52 = load ptr, ptr %9, align 8, !tbaa !9
  %53 = load ptr, ptr %10, align 8, !tbaa !9
  %54 = load i32, ptr %11, align 4, !tbaa !3
  %55 = load i32, ptr %12, align 4, !tbaa !3
  %56 = load i32, ptr %13, align 4, !tbaa !3
  %57 = load ptr, ptr %14, align 8, !tbaa !9
  %58 = load i32, ptr %15, align 4, !tbaa !3
  %59 = sext i32 %58 to i64
  %60 = call noundef i32 @_ZN10duckdb_lz440LZ4_decompress_safe_partial_forceExtDictEPKcPciiiPKvm(ptr noundef %52, ptr noundef %53, i32 noundef %54, i32 noundef %55, i32 noundef %56, ptr noundef %57, i64 noundef %59)
  store i32 %60, ptr %8, align 4
  br label %61

61:                                               ; preds = %51, %42, %35, %18
  %62 = load i32, ptr %8, align 4
  ret i32 %62
}