; Function Attrs: mustprogress nofree norecurse nosync nounwind memory(readwrite, inaccessiblemem: none) uwtable
define noundef i32 @_ZN10duckdb_lz437LZ4_decompress_safe_partial_usingDictEPKcPciiiS1_i(ptr noundef %0, ptr noundef %1, i32 noundef %2, i32 noundef %3, i32 noundef %4, ptr noundef captures(address) %5, i32 noundef %6) local_unnamed_addr #1 {
  %8 = icmp eq i32 %6, 0
  br i1 %8, label %9, label %12

9:                                                ; preds = %7
  %10 = tail call i32 @llvm.smin.i32(i32 %3, i32 %4)
  %11 = tail call fastcc noundef i32 @_ZN10duckdb_lz4L22LZ4_decompress_genericEPKcPciiNS_18earlyEnd_directiveENS_14dict_directiveEPKhS6_m(ptr noundef %0, ptr noundef %1, i32 noundef %2, i32 noundef %10, i32 noundef 1, i32 noundef 0, ptr noundef %1, ptr noundef null, i64 noundef 0)
  br label %29

12:                                               ; preds = %7
  %13 = sext i32 %6 to i64
  %14 = getelementptr inbounds i8, ptr %5, i64 %13
  %15 = icmp eq ptr %14, %1
  br i1 %15, label %16, label %26

16:                                               ; preds = %12
  %17 = icmp sgt i32 %6, 65534
  %18 = tail call i32 @llvm.smin.i32(i32 %3, i32 %4)
  br i1 %17, label %19, label %22

19:                                               ; preds = %16
  %20 = getelementptr inbounds i8, ptr %1, i64 -65536
  %21 = tail call fastcc noundef i32 @_ZN10duckdb_lz4L22LZ4_decompress_genericEPKcPciiNS_18earlyEnd_directiveENS_14dict_directiveEPKhS6_m(ptr noundef %0, ptr noundef %1, i32 noundef %2, i32 noundef %18, i32 noundef 1, i32 noundef 1, ptr noundef nonnull %20, ptr noundef null, i64 noundef 0)
  br label %29

22:                                               ; preds = %16
  %23 = sub nsw i64 0, %13
  %24 = getelementptr inbounds i8, ptr %1, i64 %23
  %25 = tail call fastcc noundef i32 @_ZN10duckdb_lz4L22LZ4_decompress_genericEPKcPciiNS_18earlyEnd_directiveENS_14dict_directiveEPKhS6_m(ptr noundef %0, ptr noundef %1, i32 noundef %2, i32 noundef %18, i32 noundef 1, i32 noundef 0, ptr noundef nonnull %24, ptr noundef null, i64 noundef 0)
  br label %29

26:                                               ; preds = %12
  %27 = tail call i32 @llvm.smin.i32(i32 %3, i32 %4)
  %28 = tail call fastcc noundef i32 @_ZN10duckdb_lz4L22LZ4_decompress_genericEPKcPciiNS_18earlyEnd_directiveENS_14dict_directiveEPKhS6_m(ptr noundef %0, ptr noundef %1, i32 noundef %2, i32 noundef %27, i32 noundef 1, i32 noundef 2, ptr noundef %1, ptr noundef %5, i64 noundef %13)
  br label %29

29:                                               ; preds = %26, %22, %19, %9
  %.0 = phi i32 [ %11, %9 ], [ %21, %19 ], [ %25, %22 ], [ %28, %26 ]
  ret i32 %.0
}